; Function Attrs: nounwind uwtable
define ptr @curl_unescape(ptr noundef readonly %0, i32 noundef %1) local_unnamed_addr #0 {
  %3 = icmp ne ptr %0, null
  %4 = icmp sgt i32 %1, -1
  %or.cond.i = and i1 %3, %4
  br i1 %or.cond.i, label %5, label %curl_easy_unescape.exit

5:                                                ; preds = %2
  %6 = zext nneg i32 %1 to i64
  %.not.i.i = icmp eq i32 %1, 0
  br i1 %.not.i.i, label %7, label %9

7:                                                ; preds = %5
  %8 = tail call i64 @strlen(ptr noundef nonnull readonly dereferenceable(1) %0) #6
  br label %9

9:                                                ; preds = %7, %5
  %10 = phi i64 [ %8, %7 ], [ %6, %5 ]
  %11 = load ptr, ptr @Curl_cmalloc, align 8, !tbaa !3
  %12 = add i64 %10, 1
  %13 = tail call ptr %11(i64 noundef %12) #5
  %.not67.i.i = icmp eq ptr %13, null
  br i1 %.not67.i.i, label %curl_easy_unescape.exit, label %14

14:                                               ; preds = %9
  %.not6884.i.i = icmp eq i64 %10, 0
  br i1 %.not6884.i.i, label %.loopexit.i, label %.lr.ph.split.us.split.us.i.i

.lr.ph.split.us.split.us.i.i:                     ; preds = %14, %37
  %.05187.us.us.i.i = phi ptr [ %40, %37 ], [ %13, %14 ]
  %.05286.us.us.i.i = phi i64 [ %39, %37 ], [ %10, %14 ]
  %.05685.us.us.i.i = phi ptr [ %38, %37 ], [ %0, %14 ]
  %15 = load i8, ptr %.05685.us.us.i.i, align 1, !tbaa !7
  %16 = icmp eq i8 %15, 37
  %17 = icmp ugt i64 %.05286.us.us.i.i, 2
  %or.cond.us.us.i.i = and i1 %17, %16
  br i1 %or.cond.us.us.i.i, label %18, label %37

18:                                               ; preds = %.lr.ph.split.us.split.us.i.i
  %19 = getelementptr inbounds nuw i8, ptr %.05685.us.us.i.i, i64 1
  %20 = load i8, ptr %19, align 1, !tbaa !7
  %.fr93.i.i = freeze i8 %20
  %21 = add i8 %.fr93.i.i, -48
  %or.cond70.us.us.i.i = icmp ult i8 %21, 10
  br i1 %or.cond70.us.us.i.i, label %22, label %switch.early.test.us.us.i.i

switch.early.test.us.us.i.i:                      ; preds = %18
  switch i8 %.fr93.i.i, label %37 [
    i8 102, label %22
    i8 101, label %22
    i8 100, label %22
    i8 99, label %22
    i8 98, label %22
    i8 97, label %22
    i8 70, label %22
    i8 69, label %22
    i8 68, label %22
    i8 67, label %22
    i8 66, label %22
    i8 65, label %22
  ]

22:                                               ; preds = %switch.early.test.us.us.i.i, %switch.early.test.us.us.i.i, %switch.early.test.us.us.i.i, %switch.early.test.us.us.i.i, %switch.early.test.us.us.i.i, %switch.early.test.us.us.i.i, %switch.early.test.us.us.i.i, %switch.early.test.us.us.i.i, %switch.early.test.us.us.i.i, %switch.early.test.us.us.i.i, %switch.early.test.us.us.i.i, %switch.early.test.us.us.i.i, %18
  %23 = getelementptr inbounds nuw i8, ptr %.05685.us.us.i.i, i64 2
  %24 = load i8, ptr %23, align 1, !tbaa !7
  %.fr94.i.i = freeze i8 %24
  %25 = add i8 %.fr94.i.i, -48
  %or.cond73.us.us.i.i = icmp ult i8 %25, 10
  br i1 %or.cond73.us.us.i.i, label %26, label %switch.early.test82.us.us.i.i

switch.early.test82.us.us.i.i:                    ; preds = %22
  switch i8 %.fr94.i.i, label %37 [
    i8 102, label %26
    i8 101, label %26
    i8 100, label %26
    i8 99, label %26
    i8 98, label %26
    i8 97, label %26
    i8 70, label %26
    i8 69, label %26
    i8 68, label %26
    i8 67, label %26
    i8 66, label %26
    i8 65, label %26
  ]

26:                                               ; preds = %switch.early.test82.us.us.i.i, %switch.early.test82.us.us.i.i, %switch.early.test82.us.us.i.i, %switch.early.test82.us.us.i.i, %switch.early.test82.us.us.i.i, %switch.early.test82.us.us.i.i, %switch.early.test82.us.us.i.i, %switch.early.test82.us.us.i.i, %switch.early.test82.us.us.i.i, %switch.early.test82.us.us.i.i, %switch.early.test82.us.us.i.i, %switch.early.test82.us.us.i.i, %22
  %27 = zext nneg i8 %.fr93.i.i to i64
  %28 = add nsw i64 %27, -48
  %29 = getelementptr inbounds [55 x i8], ptr @hextable, i64 0, i64 %28
  %30 = load i8, ptr %29, align 1, !tbaa !7
  %31 = shl i8 %30, 4
  %32 = zext nneg i8 %.fr94.i.i to i64
  %33 = add nsw i64 %32, -48
  %34 = getelementptr inbounds [55 x i8], ptr @hextable, i64 0, i64 %33
  %35 = load i8, ptr %34, align 1, !tbaa !7
  %36 = or i8 %31, %35
  br label %37

37:                                               ; preds = %26, %switch.early.test82.us.us.i.i, %switch.early.test.us.us.i.i, %.lr.ph.split.us.split.us.i.i
  %.sink105.i.i = phi i64 [ 3, %26 ], [ 1, %switch.early.test82.us.us.i.i ], [ 1, %switch.early.test.us.us.i.i ], [ 1, %.lr.ph.split.us.split.us.i.i ]
  %.sink.i.i = phi i64 [ -3, %26 ], [ -1, %switch.early.test82.us.us.i.i ], [ -1, %switch.early.test.us.us.i.i ], [ -1, %.lr.ph.split.us.split.us.i.i ]
  %.0.us.us.i.i = phi i8 [ %36, %26 ], [ 37, %switch.early.test82.us.us.i.i ], [ 37, %switch.early.test.us.us.i.i ], [ %15, %.lr.ph.split.us.split.us.i.i ]
  %38 = getelementptr inbounds nuw i8, ptr %.05685.us.us.i.i, i64 %.sink105.i.i
  %39 = add i64 %.sink.i.i, %.05286.us.us.i.i
  %40 = getelementptr inbounds nuw i8, ptr %.05187.us.us.i.i, i64 1
  store i8 %.0.us.us.i.i, ptr %.05187.us.us.i.i, align 1, !tbaa !7
  %.not68.us.us.i.i = icmp eq i64 %39, 0
  br i1 %.not68.us.us.i.i, label %.loopexit.i, label %.lr.ph.split.us.split.us.i.i, !llvm.loop !10

.loopexit.i:                                      ; preds = %37, %14
  %.051.lcssa.i.i = phi ptr [ %13, %14 ], [ %40, %37 ]
  store i8 0, ptr %.051.lcssa.i.i, align 1, !tbaa !7
  br label %curl_easy_unescape.exit

curl_easy_unescape.exit:                          ; preds = %2, %9, %.loopexit.i
  %.1.i = phi ptr [ null, %2 ], [ %13, %.loopexit.i ], [ null, %9 ]
  ret ptr %.1.i
}